target datalayout = "e-m:e-p270:32:32-p271:32:32-p272:64:64-i64:64-i128:128-f80:128-n8:16:32:64-S128"
target triple = "x86_64-pc-linux-gnu"

%"class.cv::utils::trace::details::Region" = type <{ ptr, i32, [4 x i8] }>
%"class.cv::Range" = type { i32, i32 }
%"class.cv::ParallelLoopBody" = type { ptr }
%"struct.cv::hal::cpu_baseline::(anonymous namespace)::YCrCb2RGB_i.1" = type { i32, i32, i8, [4 x i32] }
%"class.cv::impl::(anonymous namespace)::CvtColorLoop_Invoker.11" = type { %"class.cv::ParallelLoopBody", ptr, i64, ptr, i64, i32, ptr }

; Function Attrs: mustprogress nounwind uwtable
define linkonce_odr hidden noundef zeroext i16 @_ZNSt14numeric_limitsItE3maxEv() #2 comdat align 2 {
  ret i16 -1
}

; Function Attrs: mustprogress nounwind uwtable
define internal noundef zeroext i16 @_ZN2cvL13saturate_castItEET_i(i32 noundef %0) #2 {
  %2 = alloca i32, align 4
  store i32 %0, ptr %2, align 4
  %3 = load i32, ptr %2, align 4
  %4 = icmp ule i32 %3, 65535
  br i1 %4, label %5, label %7

5:                                                ; preds = %1
  %6 = load i32, ptr %2, align 4
  br label %11

7:                                                ; preds = %1
  %8 = load i32, ptr %2, align 4
  %9 = icmp sgt i32 %8, 0
  %10 = select i1 %9, i32 65535, i32 0
  br label %11

11:                                               ; preds = %7, %5
  %12 = phi i32 [ %6, %5 ], [ %10, %7 ]
  %13 = trunc i32 %12 to i16
  ret i16 %13
}

; Function Attrs: mustprogress nounwind uwtable
define internal noundef zeroext i16 @_ZN2cv4impl12_GLOBAL__N_112ColorChannelItE3maxEv() #2 align 2 {
  %1 = call noundef zeroext i16 @_ZNSt14numeric_limitsItE3maxEv() #10
  ret i16 %1
}

; Function Attrs: mustprogress uwtable
define internal noundef zeroext i16 @_ZN2cv4impl12_GLOBAL__N_112ColorChannelItE4halfEv() #0 align 2 {
  %1 = call noundef zeroext i16 @_ZN2cv4impl12_GLOBAL__N_112ColorChannelItE3maxEv()
  %2 = zext i16 %1 to i32
  %3 = sdiv i32 %2, 2
  %4 = add nsw i32 %3, 1
  %5 = trunc i32 %4 to i16
  ret i16 %5
}

; Function Attrs: mustprogress nounwind uwtable
define linkonce_odr hidden void @_ZN2cv5utils5trace7details6RegionD2Ev(ptr noundef nonnull align 8 dereferenceable(12) %0) unnamed_addr #2 comdat align 2 personality ptr @__gxx_personality_v0 {
  %2 = alloca ptr, align 8
  store ptr %0, ptr %2, align 8
  %3 = load ptr, ptr %2, align 8
  %4 = getelementptr inbounds %"class.cv::utils::trace::details::Region", ptr %3, i32 0, i32 1
  %5 = load i32, ptr %4, align 8
  %6 = icmp ne i32 %5, 0
  br i1 %6, label %7, label %9

7:                                                ; preds = %1
  invoke void @_ZN2cv5utils5trace7details6Region7destroyEv(ptr noundef nonnull align 8 dereferenceable(12) %3)
          to label %8 unwind label %10

8:                                                ; preds = %7
  br label %9

9:                                                ; preds = %8, %1
  ret void

10:                                               ; preds = %7
  %11 = landingpad { ptr, i32 }
          catch ptr null
  %12 = extractvalue { ptr, i32 } %11, 0
  call void @__clang_call_terminate(ptr %12) #11
  unreachable
}

; Function Attrs: mustprogress uwtable
define internal void @_ZNK2cv3hal12cpu_baseline12_GLOBAL__N_111YCrCb2RGB_iItEclEPKtPti(ptr noundef nonnull align 4 dereferenceable(28) %0, ptr noundef %1, ptr noundef %2, i32 noundef %3) #0 align 2 {
  %5 = alloca ptr, align 8
  %6 = alloca ptr, align 8
  %7 = alloca ptr, align 8
  %8 = alloca i32, align 4
  %9 = alloca i32, align 4
  %10 = alloca i32, align 4
  %11 = alloca i32, align 4
  %12 = alloca i32, align 4
  %13 = alloca i16, align 2
  %14 = alloca i16, align 2
  %15 = alloca i32, align 4
  %16 = alloca i32, align 4
  %17 = alloca i32, align 4
  %18 = alloca i32, align 4
  %19 = alloca i16, align 2
  %20 = alloca i16, align 2
  %21 = alloca i16, align 2
  %22 = alloca i32, align 4
  %23 = alloca i32, align 4
  %24 = alloca i32, align 4
  store ptr %0, ptr %5, align 8
  store ptr %1, ptr %6, align 8
  store ptr %2, ptr %7, align 8
  store i32 %3, ptr %8, align 4
  %25 = load ptr, ptr %5, align 8
  %26 = getelementptr inbounds %"struct.cv::hal::cpu_baseline::(anonymous namespace)::YCrCb2RGB_i.1", ptr %25, i32 0, i32 0
  %27 = load i32, ptr %26, align 4
  store i32 %27, ptr %9, align 4
  %28 = getelementptr inbounds %"struct.cv::hal::cpu_baseline::(anonymous namespace)::YCrCb2RGB_i.1", ptr %25, i32 0, i32 1
  %29 = load i32, ptr %28, align 4
  store i32 %29, ptr %10, align 4
  store i32 0, ptr %11, align 4
  %30 = getelementptr inbounds %"struct.cv::hal::cpu_baseline::(anonymous namespace)::YCrCb2RGB_i.1", ptr %25, i32 0, i32 2
  %31 = load i8, ptr %30, align 4
  %32 = trunc i8 %31 to i1
  %33 = xor i1 %32, true
  %34 = zext i1 %33 to i32
  store i32 %34, ptr %12, align 4
  %35 = call noundef zeroext i16 @_ZN2cv4impl12_GLOBAL__N_112ColorChannelItE4halfEv()
  store i16 %35, ptr %13, align 2
  %36 = call noundef zeroext i16 @_ZN2cv4impl12_GLOBAL__N_112ColorChannelItE3maxEv()
  store i16 %36, ptr %14, align 2
  %37 = getelementptr inbounds %"struct.cv::hal::cpu_baseline::(anonymous namespace)::YCrCb2RGB_i.1", ptr %25, i32 0, i32 3
  %38 = getelementptr inbounds [4 x i32], ptr %37, i64 0, i64 0
  %39 = load i32, ptr %38, align 4
  store i32 %39, ptr %15, align 4
  %40 = getelementptr inbounds %"struct.cv::hal::cpu_baseline::(anonymous namespace)::YCrCb2RGB_i.1", ptr %25, i32 0, i32 3
  %41 = getelementptr inbounds [4 x i32], ptr %40, i64 0, i64 1
  %42 = load i32, ptr %41, align 4
  store i32 %42, ptr %16, align 4
  %43 = getelementptr inbounds %"struct.cv::hal::cpu_baseline::(anonymous namespace)::YCrCb2RGB_i.1", ptr %25, i32 0, i32 3
  %44 = getelementptr inbounds [4 x i32], ptr %43, i64 0, i64 2
  %45 = load i32, ptr %44, align 4
  store i32 %45, ptr %17, align 4
  %46 = getelementptr inbounds %"struct.cv::hal::cpu_baseline::(anonymous namespace)::YCrCb2RGB_i.1", ptr %25, i32 0, i32 3
  %47 = getelementptr inbounds [4 x i32], ptr %46, i64 0, i64 3
  %48 = load i32, ptr %47, align 4
  store i32 %48, ptr %18, align 4
  br label %49

49:                                               ; preds = %137, %4
  %50 = load i32, ptr %11, align 4
  %51 = load i32, ptr %8, align 4
  %52 = icmp slt i32 %50, %51
  br i1 %52, label %53, label %146

53:                                               ; preds = %49
  %54 = load ptr, ptr %6, align 8
  %55 = getelementptr inbounds i16, ptr %54, i64 0
  %56 = load i16, ptr %55, align 2
  store i16 %56, ptr %19, align 2
  %57 = load ptr, ptr %6, align 8
  %58 = load i32, ptr %12, align 4
  %59 = add nsw i32 1, %58
  %60 = sext i32 %59 to i64
  %61 = getelementptr inbounds i16, ptr %57, i64 %60
  %62 = load i16, ptr %61, align 2
  store i16 %62, ptr %20, align 2
  %63 = load ptr, ptr %6, align 8
  %64 = load i32, ptr %12, align 4
  %65 = sub nsw i32 2, %64
  %66 = sext i32 %65 to i64
  %67 = getelementptr inbounds i16, ptr %63, i64 %66
  %68 = load i16, ptr %67, align 2
  store i16 %68, ptr %21, align 2
  %69 = load i16, ptr %19, align 2
  %70 = zext i16 %69 to i32
  %71 = load i16, ptr %21, align 2
  %72 = zext i16 %71 to i32
  %73 = load i16, ptr %13, align 2
  %74 = zext i16 %73 to i32
  %75 = sub nsw i32 %72, %74
  %76 = load i32, ptr %18, align 4
  %77 = mul nsw i32 %75, %76
  %78 = add nsw i32 %77, 8192
  %79 = ashr i32 %78, 14
  %80 = add nsw i32 %70, %79
  store i32 %80, ptr %22, align 4
  %81 = load i16, ptr %19, align 2
  %82 = zext i16 %81 to i32
  %83 = load i16, ptr %21, align 2
  %84 = zext i16 %83 to i32
  %85 = load i16, ptr %13, align 2
  %86 = zext i16 %85 to i32
  %87 = sub nsw i32 %84, %86
  %88 = load i32, ptr %17, align 4
  %89 = mul nsw i32 %87, %88
  %90 = load i16, ptr %20, align 2
  %91 = zext i16 %90 to i32
  %92 = load i16, ptr %13, align 2
  %93 = zext i16 %92 to i32
  %94 = sub nsw i32 %91, %93
  %95 = load i32, ptr %16, align 4
  %96 = mul nsw i32 %94, %95
  %97 = add nsw i32 %89, %96
  %98 = add nsw i32 %97, 8192
  %99 = ashr i32 %98, 14
  %100 = add nsw i32 %82, %99
  store i32 %100, ptr %23, align 4
  %101 = load i16, ptr %19, align 2
  %102 = zext i16 %101 to i32
  %103 = load i16, ptr %20, align 2
  %104 = zext i16 %103 to i32
  %105 = load i16, ptr %13, align 2
  %106 = zext i16 %105 to i32
  %107 = sub nsw i32 %104, %106
  %108 = load i32, ptr %15, align 4
  %109 = mul nsw i32 %107, %108
  %110 = add nsw i32 %109, 8192
  %111 = ashr i32 %110, 14
  %112 = add nsw i32 %102, %111
  store i32 %112, ptr %24, align 4
  %113 = load i32, ptr %22, align 4
  %114 = call noundef zeroext i16 @_ZN2cvL13saturate_castItEET_i(i32 noundef %113)
  %115 = load ptr, ptr %7, align 8
  %116 = load i32, ptr %10, align 4
  %117 = sext i32 %116 to i64
  %118 = getelementptr inbounds i16, ptr %115, i64 %117
  store i16 %114, ptr %118, align 2
  %119 = load i32, ptr %23, align 4
  %120 = call noundef zeroext i16 @_ZN2cvL13saturate_castItEET_i(i32 noundef %119)
  %121 = load ptr, ptr %7, align 8
  %122 = getelementptr inbounds i16, ptr %121, i64 1
  store i16 %120, ptr %122, align 2
  %123 = load i32, ptr %24, align 4
  %124 = call noundef zeroext i16 @_ZN2cvL13saturate_castItEET_i(i32 noundef %123)
  %125 = load ptr, ptr %7, align 8
  %126 = load i32, ptr %10, align 4
  %127 = xor i32 %126, 2
  %128 = sext i32 %127 to i64
  %129 = getelementptr inbounds i16, ptr %125, i64 %128
  store i16 %124, ptr %129, align 2
  %130 = load i32, ptr %9, align 4
  %131 = icmp eq i32 %130, 4
  br i1 %131, label %132, label %136

132:                                              ; preds = %53
  %133 = load i16, ptr %14, align 2
  %134 = load ptr, ptr %7, align 8
  %135 = getelementptr inbounds i16, ptr %134, i64 3
  store i16 %133, ptr %135, align 2
  br label %136

136:                                              ; preds = %132, %53
  br label %137

137:                                              ; preds = %136
  %138 = load i32, ptr %11, align 4
  %139 = add nsw i32 %138, 1
  store i32 %139, ptr %11, align 4
  %140 = load ptr, ptr %6, align 8
  %141 = getelementptr inbounds i16, ptr %140, i64 3
  store ptr %141, ptr %6, align 8
  %142 = load i32, ptr %9, align 4
  %143 = load ptr, ptr %7, align 8
  %144 = sext i32 %142 to i64
  %145 = getelementptr inbounds i16, ptr %143, i64 %144
  store ptr %145, ptr %7, align 8
  br label %49, !llvm.loop !22

146:                                              ; preds = %49
  ret void
}

; Function Attrs: mustprogress uwtable
define internal void @_ZNK2cv4impl12_GLOBAL__N_120CvtColorLoop_InvokerINS_3hal12cpu_baseline12_GLOBAL__N_111YCrCb2RGB_iItEEEclERKNS_5RangeE(ptr noundef nonnull align 8 dereferenceable(56) %0, ptr noundef nonnull align 4 dereferenceable(8) %1) unnamed_addr #0 align 2 personality ptr @__gxx_personality_v0 {
  %3 = alloca ptr, align 8
  %4 = alloca ptr, align 8
  %5 = alloca %"class.cv::utils::trace::details::Region", align 8
  %6 = alloca ptr, align 8
  %7 = alloca ptr, align 8
  %8 = alloca i32, align 4
  %9 = alloca ptr, align 8
  %10 = alloca i32, align 4
  store ptr %0, ptr %3, align 8
  store ptr %1, ptr %4, align 8
  %11 = load ptr, ptr %3, align 8
  call void @_ZN2cv5utils5trace7details6RegionC1ERKNS3_21LocationStaticStorageE(ptr noundef nonnull align 8 dereferenceable(12) %5, ptr noundef nonnull align 8 dereferenceable(32) @_ZZNK2cv4impl12_GLOBAL__N_120CvtColorLoop_InvokerINS_3hal12cpu_baseline12_GLOBAL__N_111YCrCb2RGB_iItEEEclERKNS_5RangeEE25__cv_trace_location_fn146)
  %12 = getelementptr inbounds %"class.cv::impl::(anonymous namespace)::CvtColorLoop_Invoker.11", ptr %11, i32 0, i32 1
  %13 = load ptr, ptr %12, align 8
  %14 = load ptr, ptr %4, align 8
  %15 = getelementptr inbounds %"class.cv::Range", ptr %14, i32 0, i32 0
  %16 = load i32, ptr %15, align 4
  %17 = sext i32 %16 to i64
  %18 = getelementptr inbounds %"class.cv::impl::(anonymous namespace)::CvtColorLoop_Invoker.11", ptr %11, i32 0, i32 2
  %19 = load i64, ptr %18, align 8
  %20 = mul i64 %17, %19
  %21 = getelementptr inbounds i8, ptr %13, i64 %20
  store ptr %21, ptr %6, align 8
  %22 = getelementptr inbounds %"class.cv::impl::(anonymous namespace)::CvtColorLoop_Invoker.11", ptr %11, i32 0, i32 3
  %23 = load ptr, ptr %22, align 8
  %24 = load ptr, ptr %4, align 8
  %25 = getelementptr inbounds %"class.cv::Range", ptr %24, i32 0, i32 0
  %26 = load i32, ptr %25, align 4
  %27 = sext i32 %26 to i64
  %28 = getelementptr inbounds %"class.cv::impl::(anonymous namespace)::CvtColorLoop_Invoker.11", ptr %11, i32 0, i32 4
  %29 = load i64, ptr %28, align 8
  %30 = mul i64 %27, %29
  %31 = getelementptr inbounds i8, ptr %23, i64 %30
  store ptr %31, ptr %7, align 8
  %32 = load ptr, ptr %4, align 8
  %33 = getelementptr inbounds %"class.cv::Range", ptr %32, i32 0, i32 0
  %34 = load i32, ptr %33, align 4
  store i32 %34, ptr %8, align 4
  br label %35

35:                                               ; preds = %49, %2
  %36 = load i32, ptr %8, align 4
  %37 = load ptr, ptr %4, align 8
  %38 = getelementptr inbounds %"class.cv::Range", ptr %37, i32 0, i32 1
  %39 = load i32, ptr %38, align 4
  %40 = icmp slt i32 %36, %39
  br i1 %40, label %41, label %64

41:                                               ; preds = %35
  %42 = getelementptr inbounds %"class.cv::impl::(anonymous namespace)::CvtColorLoop_Invoker.11", ptr %11, i32 0, i32 6
  %43 = load ptr, ptr %42, align 8
  %44 = load ptr, ptr %6, align 8
  %45 = load ptr, ptr %7, align 8
  %46 = getelementptr inbounds %"class.cv::impl::(anonymous namespace)::CvtColorLoop_Invoker.11", ptr %11, i32 0, i32 5
  %47 = load i32, ptr %46, align 8
  invoke void @_ZNK2cv3hal12cpu_baseline12_GLOBAL__N_111YCrCb2RGB_iItEclEPKtPti(ptr noundef nonnull align 4 dereferenceable(28) %43, ptr noundef %44, ptr noundef %45, i32 noundef %47)
          to label %48 unwind label %60

48:                                               ; preds = %41
  br label %49

49:                                               ; preds = %48
  %50 = load i32, ptr %8, align 4
  %51 = add nsw i32 %50, 1
  store i32 %51, ptr %8, align 4
  %52 = getelementptr inbounds %"class.cv::impl::(anonymous namespace)::CvtColorLoop_Invoker.11", ptr %11, i32 0, i32 2
  %53 = load i64, ptr %52, align 8
  %54 = load ptr, ptr %6, align 8
  %55 = getelementptr inbounds i8, ptr %54, i64 %53
  store ptr %55, ptr %6, align 8
  %56 = getelementptr inbounds %"class.cv::impl::(anonymous namespace)::CvtColorLoop_Invoker.11", ptr %11, i32 0, i32 4
  %57 = load i64, ptr %56, align 8
  %58 = load ptr, ptr %7, align 8
  %59 = getelementptr inbounds i8, ptr %58, i64 %57
  store ptr %59, ptr %7, align 8
  br label %35, !llvm.loop !21

60:                                               ; preds = %41
  %61 = landingpad { ptr, i32 }
          cleanup
  %62 = extractvalue { ptr, i32 } %61, 0
  store ptr %62, ptr %9, align 8
  %63 = extractvalue { ptr, i32 } %61, 1
  store i32 %63, ptr %10, align 4
  call void @_ZN2cv5utils5trace7details6RegionD2Ev(ptr noundef nonnull align 8 dereferenceable(12) %5) #10
  br label %65

64:                                               ; preds = %35
  call void @_ZN2cv5utils5trace7details6RegionD2Ev(ptr noundef nonnull align 8 dereferenceable(12) %5) #10
  ret void

65:                                               ; preds = %60
  %66 = load ptr, ptr %9, align 8
  %67 = load i32, ptr %10, align 4
  %68 = insertvalue { ptr, i32 } poison, ptr %66, 0
  %69 = insertvalue { ptr, i32 } %68, i32 %67, 1
  resume { ptr, i32 } %69
}