; Function Attrs: mustprogress uwtable
define internal void @_ZNK2cv4impl12_GLOBAL__N_120CvtColorLoop_InvokerINS_3hal12cpu_baseline12_GLOBAL__N_111YCrCb2RGB_iItEEEclERKNS_5RangeE(ptr nocapture noundef nonnull readonly align 8 dereferenceable(56) %0, ptr nocapture noundef nonnull readonly align 4 dereferenceable(8) %1) unnamed_addr #0 align 2 personality ptr @__gxx_personality_v0 {
  %3 = alloca %"class.cv::utils::trace::details::Region", align 8
  call void @_ZN2cv5utils5trace7details6RegionC1ERKNS3_21LocationStaticStorageE(ptr noundef nonnull align 8 dereferenceable(12) %3, ptr noundef nonnull align 8 dereferenceable(32) @_ZZNK2cv4impl12_GLOBAL__N_120CvtColorLoop_InvokerINS_3hal12cpu_baseline12_GLOBAL__N_111YCrCb2RGB_iItEEEclERKNS_5RangeEE25__cv_trace_location_fn146)
  %4 = load i32, ptr %1, align 4
  %5 = getelementptr inbounds i8, ptr %0, i64 16
  %6 = getelementptr inbounds i8, ptr %0, i64 32
  %7 = getelementptr inbounds i8, ptr %1, i64 4
  %8 = load i32, ptr %7, align 4
  %9 = icmp slt i32 %4, %8
  br i1 %9, label %.lr.ph, label %._crit_edge

.lr.ph:                                           ; preds = %2
  %10 = getelementptr inbounds i8, ptr %0, i64 48
  %11 = getelementptr inbounds i8, ptr %0, i64 40
  %12 = load i32, ptr %11, align 8
  %13 = icmp sgt i32 %12, 0
  br i1 %13, label %.lr.ph.split.preheader, label %._crit_edge

.lr.ph.split.preheader:                           ; preds = %.lr.ph
  %14 = getelementptr inbounds i8, ptr %0, i64 8
  %15 = load ptr, ptr %14, align 8
  %16 = load i64, ptr %5, align 8
  %17 = sext i32 %4 to i64
  %18 = mul i64 %16, %17
  %19 = getelementptr inbounds i8, ptr %15, i64 %18
  %20 = getelementptr inbounds i8, ptr %0, i64 24
  %21 = load ptr, ptr %20, align 8
  %22 = load i64, ptr %6, align 8
  %23 = mul i64 %22, %17
  %24 = getelementptr inbounds i8, ptr %21, i64 %23
  br label %.lr.ph.split

.lr.ph.split:                                     ; preds = %.lr.ph.split.preheader, %_ZNK2cv3hal12cpu_baseline12_GLOBAL__N_111YCrCb2RGB_iItEclEPKtPti.exit
  %.017 = phi ptr [ %134, %_ZNK2cv3hal12cpu_baseline12_GLOBAL__N_111YCrCb2RGB_iItEclEPKtPti.exit ], [ %19, %.lr.ph.split.preheader ]
  %.01216 = phi ptr [ %136, %_ZNK2cv3hal12cpu_baseline12_GLOBAL__N_111YCrCb2RGB_iItEclEPKtPti.exit ], [ %24, %.lr.ph.split.preheader ]
  %.01315 = phi i32 [ %132, %_ZNK2cv3hal12cpu_baseline12_GLOBAL__N_111YCrCb2RGB_iItEclEPKtPti.exit ], [ %4, %.lr.ph.split.preheader ]
  %25 = load ptr, ptr %10, align 8
  %26 = load i32, ptr %11, align 8
  %27 = getelementptr inbounds i8, ptr %25, i64 12
  %28 = load i32, ptr %27, align 4
  %29 = getelementptr inbounds i8, ptr %25, i64 16
  %30 = load i32, ptr %29, align 4
  %31 = getelementptr inbounds i8, ptr %25, i64 20
  %32 = load i32, ptr %31, align 4
  %33 = getelementptr inbounds i8, ptr %25, i64 24
  %34 = load i32, ptr %33, align 4
  %35 = icmp sgt i32 %26, 0
  br i1 %35, label %.lr.ph.i, label %_ZNK2cv3hal12cpu_baseline12_GLOBAL__N_111YCrCb2RGB_iItEclEPKtPti.exit

.lr.ph.i:                                         ; preds = %.lr.ph.split
  %36 = getelementptr inbounds i8, ptr %25, i64 8
  %37 = load i8, ptr %36, align 4
  %38 = and i8 %37, 1
  %39 = xor i8 %38, 1
  %40 = zext nneg i8 %39 to i32
  %41 = getelementptr inbounds i8, ptr %25, i64 4
  %42 = load i32, ptr %41, align 4
  %43 = load i32, ptr %25, align 4
  %44 = add nuw nsw i32 %40, 1
  %45 = zext nneg i32 %44 to i64
  %46 = sub nuw nsw i32 2, %40
  %47 = zext nneg i32 %46 to i64
  %48 = sext i32 %42 to i64
  %49 = xor i32 %42, 2
  %50 = sext i32 %49 to i64
  %51 = icmp eq i32 %43, 4
  %52 = sext i32 %43 to i64
  br i1 %51, label %.lr.ph.split.us.i, label %.lr.ph.split.i

.lr.ph.split.us.i:                                ; preds = %.lr.ph.i, %.lr.ph.split.us.i
  %.041.us.i = phi ptr [ %91, %.lr.ph.split.us.i ], [ %.017, %.lr.ph.i ]
  %.03740.us.i = phi ptr [ %92, %.lr.ph.split.us.i ], [ %.01216, %.lr.ph.i ]
  %.03839.us.i = phi i32 [ %90, %.lr.ph.split.us.i ], [ 0, %.lr.ph.i ]
  %53 = load i16, ptr %.041.us.i, align 2
  %54 = getelementptr inbounds i16, ptr %.041.us.i, i64 %45
  %55 = load i16, ptr %54, align 2
  %56 = getelementptr inbounds i16, ptr %.041.us.i, i64 %47
  %57 = load i16, ptr %56, align 2
  %58 = zext i16 %53 to i32
  %59 = zext i16 %57 to i32
  %60 = add nsw i32 %59, -32768
  %61 = mul nsw i32 %60, %34
  %62 = add nsw i32 %61, 8192
  %63 = ashr i32 %62, 14
  %64 = add nsw i32 %63, %58
  %65 = mul nsw i32 %60, %32
  %66 = zext i16 %55 to i32
  %67 = add nsw i32 %66, -32768
  %68 = mul nsw i32 %67, %30
  %69 = add i32 %68, 8192
  %70 = add i32 %69, %65
  %71 = ashr i32 %70, 14
  %72 = add nsw i32 %71, %58
  %73 = mul nsw i32 %67, %28
  %74 = add nsw i32 %73, 8192
  %75 = ashr i32 %74, 14
  %76 = add nsw i32 %75, %58
  %77 = call i32 @llvm.smax.i32(i32 %64, i32 0)
  %78 = call i32 @llvm.umin.i32(i32 %77, i32 65535)
  %79 = trunc nuw i32 %78 to i16
  %80 = getelementptr inbounds i16, ptr %.03740.us.i, i64 %48
  store i16 %79, ptr %80, align 2
  %81 = call i32 @llvm.smax.i32(i32 %72, i32 0)
  %82 = call i32 @llvm.umin.i32(i32 %81, i32 65535)
  %83 = trunc nuw i32 %82 to i16
  %84 = getelementptr inbounds i8, ptr %.03740.us.i, i64 2
  store i16 %83, ptr %84, align 2
  %85 = call i32 @llvm.smax.i32(i32 %76, i32 0)
  %86 = call i32 @llvm.umin.i32(i32 %85, i32 65535)
  %87 = trunc nuw i32 %86 to i16
  %88 = getelementptr inbounds i16, ptr %.03740.us.i, i64 %50
  store i16 %87, ptr %88, align 2
  %89 = getelementptr inbounds i8, ptr %.03740.us.i, i64 6
  store i16 -1, ptr %89, align 2
  %90 = add nuw nsw i32 %.03839.us.i, 1
  %91 = getelementptr inbounds i8, ptr %.041.us.i, i64 6
  %92 = getelementptr inbounds i16, ptr %.03740.us.i, i64 %52
  %exitcond43.not.i = icmp eq i32 %90, %26
  br i1 %exitcond43.not.i, label %_ZNK2cv3hal12cpu_baseline12_GLOBAL__N_111YCrCb2RGB_iItEclEPKtPti.exit, label %.lr.ph.split.us.i, !llvm.loop !96

.lr.ph.split.i:                                   ; preds = %.lr.ph.i, %.lr.ph.split.i
  %.041.i = phi ptr [ %130, %.lr.ph.split.i ], [ %.017, %.lr.ph.i ]
  %.03740.i = phi ptr [ %131, %.lr.ph.split.i ], [ %.01216, %.lr.ph.i ]
  %.03839.i = phi i32 [ %129, %.lr.ph.split.i ], [ 0, %.lr.ph.i ]
  %93 = load i16, ptr %.041.i, align 2
  %94 = getelementptr inbounds i16, ptr %.041.i, i64 %45
  %95 = load i16, ptr %94, align 2
  %96 = getelementptr inbounds i16, ptr %.041.i, i64 %47
  %97 = load i16, ptr %96, align 2
  %98 = zext i16 %93 to i32
  %99 = zext i16 %97 to i32
  %100 = add nsw i32 %99, -32768
  %101 = mul nsw i32 %100, %34
  %102 = add nsw i32 %101, 8192
  %103 = ashr i32 %102, 14
  %104 = add nsw i32 %103, %98
  %105 = mul nsw i32 %100, %32
  %106 = zext i16 %95 to i32
  %107 = add nsw i32 %106, -32768
  %108 = mul nsw i32 %107, %30
  %109 = add i32 %108, 8192
  %110 = add i32 %109, %105
  %111 = ashr i32 %110, 14
  %112 = add nsw i32 %111, %98
  %113 = mul nsw i32 %107, %28
  %114 = add nsw i32 %113, 8192
  %115 = ashr i32 %114, 14
  %116 = add nsw i32 %115, %98
  %117 = call i32 @llvm.smax.i32(i32 %104, i32 0)
  %118 = call i32 @llvm.umin.i32(i32 %117, i32 65535)
  %119 = trunc nuw i32 %118 to i16
  %120 = getelementptr inbounds i16, ptr %.03740.i, i64 %48
  store i16 %119, ptr %120, align 2
  %121 = call i32 @llvm.smax.i32(i32 %112, i32 0)
  %122 = call i32 @llvm.umin.i32(i32 %121, i32 65535)
  %123 = trunc nuw i32 %122 to i16
  %124 = getelementptr inbounds i8, ptr %.03740.i, i64 2
  store i16 %123, ptr %124, align 2
  %125 = call i32 @llvm.smax.i32(i32 %116, i32 0)
  %126 = call i32 @llvm.umin.i32(i32 %125, i32 65535)
  %127 = trunc nuw i32 %126 to i16
  %128 = getelementptr inbounds i16, ptr %.03740.i, i64 %50
  store i16 %127, ptr %128, align 2
  %129 = add nuw nsw i32 %.03839.i, 1
  %130 = getelementptr inbounds i8, ptr %.041.i, i64 6
  %131 = getelementptr inbounds i16, ptr %.03740.i, i64 %52
  %exitcond.not.i = icmp eq i32 %129, %26
  br i1 %exitcond.not.i, label %_ZNK2cv3hal12cpu_baseline12_GLOBAL__N_111YCrCb2RGB_iItEclEPKtPti.exit, label %.lr.ph.split.i, !llvm.loop !96

_ZNK2cv3hal12cpu_baseline12_GLOBAL__N_111YCrCb2RGB_iItEclEPKtPti.exit: ; preds = %.lr.ph.split.i, %.lr.ph.split.us.i, %.lr.ph.split
  %132 = add nsw i32 %.01315, 1
  %133 = load i64, ptr %5, align 8
  %134 = getelementptr inbounds i8, ptr %.017, i64 %133
  %135 = load i64, ptr %6, align 8
  %136 = getelementptr inbounds i8, ptr %.01216, i64 %135
  %137 = load i32, ptr %7, align 4
  %138 = icmp slt i32 %132, %137
  br i1 %138, label %.lr.ph.split, label %._crit_edge, !llvm.loop !97

._crit_edge:                                      ; preds = %_ZNK2cv3hal12cpu_baseline12_GLOBAL__N_111YCrCb2RGB_iItEclEPKtPti.exit, %.lr.ph, %2
  %139 = getelementptr inbounds i8, ptr %3, i64 8
  %140 = load i32, ptr %139, align 8
  %.not.i = icmp eq i32 %140, 0
  br i1 %.not.i, label %_ZN2cv5utils5trace7details6RegionD2Ev.exit, label %141

141:                                              ; preds = %._crit_edge
  invoke void @_ZN2cv5utils5trace7details6Region7destroyEv(ptr noundef nonnull align 8 dereferenceable(12) %3)
          to label %_ZN2cv5utils5trace7details6RegionD2Ev.exit unwind label %142

142:                                              ; preds = %141
  %143 = landingpad { ptr, i32 }
          catch ptr null
  %144 = extractvalue { ptr, i32 } %143, 0
  call void @__clang_call_terminate(ptr %144) #13
  unreachable

_ZN2cv5utils5trace7details6RegionD2Ev.exit:       ; preds = %._crit_edge, %141
  ret void
}